TN:
SF:/home/toyota/workspace/QueueTest/src/bounded_queue.h
FN:25,_ZN5QueueIiEC2Ei
FN:36,_ZN5QueueIiE4PushEi
FN:42,_ZZN5QueueIiE4PushEiENKUlvE_clEv
FN:74,_ZN5QueueIiE3PopEv
FN:80,_ZZN5QueueIiE3PopEvENKUlvE_clEv
FN:112,_ZNK5QueueIiE5CountEv
FN:121,_ZNK5QueueIiE4SizeEv
FNDA:11,_ZN5QueueIiE3PopEv
FNDA:8,_ZN5QueueIiEC2Ei
FNDA:4,_ZZN5QueueIiE4PushEiENKUlvE_clEv
FNDA:1,_ZNK5QueueIiE4SizeEv
FNDA:6,_ZZN5QueueIiE3PopEvENKUlvE_clEv
FNDA:16,_ZN5QueueIiE4PushEi
FNDA:56,_ZNK5QueueIiE5CountEv
FNF:7
FNH:7
DA:25,8
DA:36,16
DA:37,16
DA:38,16
DA:39,32
DA:40,16
DA:41,16
DA:42,6
DA:43,0
DA:44,0
DA:45,0
DA:46,0
DA:48,0
DA:51,2
DA:55,14
DA:56,14
DA:57,0
DA:59,14
DA:61,16
DA:74,11
DA:75,11
DA:76,22
DA:77,11
DA:78,11
DA:79,11
DA:80,9
DA:81,1
DA:82,1
DA:83,1
DA:84,1
DA:85,0
DA:88,1
DA:89,1
DA:91,2
DA:96,8
DA:97,8
DA:98,8
DA:99,0
DA:102,8
DA:103,8
DA:112,56
DA:113,56
DA:121,1
DA:122,1
LF:44
LH:36
end_of_record
TN:
SF:/home/toyota/workspace/QueueTest/src/main.cpp
FN:9,_Z3popR5QueueIiE
FN:23,main
FN:28,_ZZ4mainENKUlvE_clEv
FN:41,_ZZ4mainENKUlvE0_clEv
FNDA:5,_Z3popR5QueueIiE
FNDA:1,_ZZ4mainENKUlvE_clEv
FNDA:1,main
FNDA:1,_ZZ4mainENKUlvE0_clEv
FNF:4
FNH:4
DA:9,5
DA:13,5
DA:14,4
DA:15,2
DA:16,1
DA:18,5
DA:23,1
DA:24,2
DA:28,1
DA:30,1
DA:31,1
DA:32,1
DA:33,1
DA:34,1
DA:35,1
DA:36,1
DA:38,3
DA:41,1
DA:43,1
DA:44,1
DA:45,1
DA:46,1
DA:47,1
DA:48,1
DA:49,1
DA:51,2
DA:53,1
DA:54,1
DA:56,1
LF:29
LH:29
end_of_record
TN:
SF:/home/toyota/workspace/QueueTest/src/test_bounded_queue.cpp
FN:11,_ZN9QueueTest5SetUpEv
FN:12,_ZN9QueueTest8TearDownEv
FN:15,_ZN33QueueTest_PushToNonFullQueue_TestC2Ev
FN:15,_ZN33QueueTest_PushToNonFullQueue_TestD0Ev
FN:15,_ZN33QueueTest_PushToNonFullQueue_TestD2Ev
FN:15,_ZN33QueueTest_PushToNonFullQueue_Test8TestBodyEv
FN:23,_ZN30QueueTest_PushToFullQueue_TestC2Ev
FN:23,_ZN30QueueTest_PushToFullQueue_Test8TestBodyEv
FN:23,_ZN30QueueTest_PushToFullQueue_TestD0Ev
FN:23,_ZN30QueueTest_PushToFullQueue_TestD2Ev
FN:43,_ZN35QueueTest_PopFromNonEmptyQueue_Test8TestBodyEv
FN:43,_ZN35QueueTest_PopFromNonEmptyQueue_TestD0Ev
FN:43,_ZN35QueueTest_PopFromNonEmptyQueue_TestC2Ev
FN:43,_ZN35QueueTest_PopFromNonEmptyQueue_TestD2Ev
FN:53,_ZN32QueueTest_PopFromEmptyQueue_Test8TestBodyEv
FN:53,_ZN32QueueTest_PopFromEmptyQueue_TestD2Ev
FN:53,_ZN32QueueTest_PopFromEmptyQueue_TestC2Ev
FN:53,_ZN32QueueTest_PopFromEmptyQueue_TestD0Ev
FN:62,_ZN28QueueTest_CountElements_Test8TestBodyEv
FN:62,_ZN28QueueTest_CountElements_TestC2Ev
FN:62,_ZN28QueueTest_CountElements_TestD2Ev
FN:62,_ZN28QueueTest_CountElements_TestD0Ev
FN:77,_ZN24QueueTest_QueueSize_TestD0Ev
FN:77,_ZN24QueueTest_QueueSize_TestD2Ev
FN:77,_ZN24QueueTest_QueueSize_Test8TestBodyEv
FN:77,_ZN24QueueTest_QueueSize_TestC2Ev
FN:83,_ZN25QueueTest_PushAndPop_Test8TestBodyEv
FN:83,_ZN25QueueTest_PushAndPop_TestD2Ev
FN:83,_ZN25QueueTest_PushAndPop_TestC2Ev
FN:83,_ZN25QueueTest_PushAndPop_TestD0Ev
FN:92,main
FNDA:1,_ZN30QueueTest_PushToFullQueue_TestC2Ev
FNDA:1,_ZN28QueueTest_CountElements_TestC2Ev
FNDA:1,main
FNDA:1,_ZN32QueueTest_PopFromEmptyQueue_Test8TestBodyEv
FNDA:1,_ZN24QueueTest_QueueSize_TestD2Ev
FNDA:1,_ZN35QueueTest_PopFromNonEmptyQueue_TestC2Ev
FNDA:7,_ZN9QueueTest8TearDownEv
FNDA:1,_ZN33QueueTest_PushToNonFullQueue_TestD0Ev
FNDA:1,_ZN24QueueTest_QueueSize_TestD0Ev
FNDA:1,_ZN25QueueTest_PushAndPop_Test8TestBodyEv
FNDA:1,_ZN28QueueTest_CountElements_Test8TestBodyEv
FNDA:1,_ZN35QueueTest_PopFromNonEmptyQueue_TestD0Ev
FNDA:1,_ZN33QueueTest_PushToNonFullQueue_TestC2Ev
FNDA:1,_ZN35QueueTest_PopFromNonEmptyQueue_Test8TestBodyEv
FNDA:1,_ZN32QueueTest_PopFromEmptyQueue_TestD2Ev
FNDA:1,_ZN30QueueTest_PushToFullQueue_TestD2Ev
FNDA:1,_ZN32QueueTest_PopFromEmptyQueue_TestC2Ev
FNDA:1,_ZN25QueueTest_PushAndPop_TestD0Ev
FNDA:1,_ZN28QueueTest_CountElements_TestD0Ev
FNDA:1,_ZN32QueueTest_PopFromEmptyQueue_TestD0Ev
FNDA:7,_ZN9QueueTest5SetUpEv
FNDA:1,_ZN33QueueTest_PushToNonFullQueue_Test8TestBodyEv
FNDA:1,_ZN25QueueTest_PushAndPop_TestC2Ev
FNDA:1,_ZN35QueueTest_PopFromNonEmptyQueue_TestD2Ev
FNDA:1,_ZN28QueueTest_CountElements_TestD2Ev
FNDA:1,_ZN25QueueTest_PushAndPop_TestD2Ev
FNDA:1,_ZN33QueueTest_PushToNonFullQueue_TestD2Ev
FNDA:1,_ZN30QueueTest_PushToFullQueue_Test8TestBodyEv
FNDA:1,_ZN24QueueTest_QueueSize_Test8TestBodyEv
FNDA:1,_ZN24QueueTest_QueueSize_TestC2Ev
FNDA:1,_ZN30QueueTest_PushToFullQueue_TestD0Ev
FNF:31
FNH:31
DA:11,7
DA:12,7
DA:15,4
DA:16,1
DA:17,1
DA:18,1
DA:19,1
DA:23,4
DA:24,2
DA:25,1
DA:26,1
DA:29,2
DA:30,1
DA:33,1
DA:36,1
DA:39,2
DA:40,1
DA:41,1
DA:43,4
DA:44,1
DA:45,1
DA:46,1
DA:47,1
DA:48,1
DA:49,1
DA:50,1
DA:53,4
DA:54,1
DA:57,2
DA:62,4
DA:63,1
DA:64,1
DA:66,1
DA:67,1
DA:69,1
DA:70,1
DA:72,1
DA:73,1
DA:77,4
DA:78,1
DA:79,1
DA:83,4
DA:84,1
DA:85,1
DA:86,1
DA:87,1
DA:88,1
DA:89,1
DA:90,1
DA:92,1
DA:93,1
DA:94,1
LF:52
LH:52
end_of_record
